target datalayout = "e-m:e-p270:32:32-p271:32:32-p272:64:64-i64:64-i128:128-f80:128-n8:16:32:64-S128"
target triple = "x86_64-pc-linux-gnu"

%struct.AVProbeData = type { ptr, ptr, i32, ptr }

@.str.3 = private unnamed_addr constant [6 x i8] c"DAHUA\00", align 1
@.str.4 = private unnamed_addr constant [5 x i8] c"DHAV\00", align 1

; Function Attrs: nounwind uwtable
define internal i32 @dhav_probe(ptr noundef %0) #0 {
  %2 = alloca i32, align 4
  %3 = alloca ptr, align 8
  store ptr %0, ptr %3, align 8, !tbaa !4
  %4 = load ptr, ptr %3, align 8, !tbaa !4
  %5 = getelementptr inbounds nuw %struct.AVProbeData, ptr %4, i32 0, i32 1
  %6 = load ptr, ptr %5, align 8, !tbaa !9
  %7 = call i32 @memcmp(ptr noundef %6, ptr noundef @.str.3, i64 noundef 5) #6
  %8 = icmp ne i32 %7, 0
  br i1 %8, label %10, label %9

9:                                                ; preds = %1
  store i32 100, ptr %2, align 4
  br label %51

10:                                               ; preds = %1
  %11 = load ptr, ptr %3, align 8, !tbaa !4
  %12 = getelementptr inbounds nuw %struct.AVProbeData, ptr %11, i32 0, i32 1
  %13 = load ptr, ptr %12, align 8, !tbaa !9
  %14 = call i32 @memcmp(ptr noundef %13, ptr noundef @.str.4, i64 noundef 4) #6
  %15 = icmp ne i32 %14, 0
  br i1 %15, label %16, label %17

16:                                               ; preds = %10
  store i32 0, ptr %2, align 4
  br label %51

17:                                               ; preds = %10
  %18 = load ptr, ptr %3, align 8, !tbaa !4
  %19 = getelementptr inbounds nuw %struct.AVProbeData, ptr %18, i32 0, i32 1
  %20 = load ptr, ptr %19, align 8, !tbaa !9
  %21 = getelementptr inbounds i8, ptr %20, i64 4
  %22 = load i8, ptr %21, align 1, !tbaa !13
  %23 = zext i8 %22 to i32
  %24 = icmp eq i32 %23, 240
  br i1 %24, label %49, label %25

25:                                               ; preds = %17
  %26 = load ptr, ptr %3, align 8, !tbaa !4
  %27 = getelementptr inbounds nuw %struct.AVProbeData, ptr %26, i32 0, i32 1
  %28 = load ptr, ptr %27, align 8, !tbaa !9
  %29 = getelementptr inbounds i8, ptr %28, i64 4
  %30 = load i8, ptr %29, align 1, !tbaa !13
  %31 = zext i8 %30 to i32
  %32 = icmp eq i32 %31, 241
  br i1 %32, label %49, label %33

33:                                               ; preds = %25
  %34 = load ptr, ptr %3, align 8, !tbaa !4
  %35 = getelementptr inbounds nuw %struct.AVProbeData, ptr %34, i32 0, i32 1
  %36 = load ptr, ptr %35, align 8, !tbaa !9
  %37 = getelementptr inbounds i8, ptr %36, i64 4
  %38 = load i8, ptr %37, align 1, !tbaa !13
  %39 = zext i8 %38 to i32
  %40 = icmp eq i32 %39, 252
  br i1 %40, label %49, label %41

41:                                               ; preds = %33
  %42 = load ptr, ptr %3, align 8, !tbaa !4
  %43 = getelementptr inbounds nuw %struct.AVProbeData, ptr %42, i32 0, i32 1
  %44 = load ptr, ptr %43, align 8, !tbaa !9
  %45 = getelementptr inbounds i8, ptr %44, i64 4
  %46 = load i8, ptr %45, align 1, !tbaa !13
  %47 = zext i8 %46 to i32
  %48 = icmp eq i32 %47, 253
  br i1 %48, label %49, label %50

49:                                               ; preds = %41, %33, %25, %17
  store i32 100, ptr %2, align 4
  br label %51

50:                                               ; preds = %41
  store i32 0, ptr %2, align 4
  br label %51

51:                                               ; preds = %50, %49, %16, %9
  %52 = load i32, ptr %2, align 4
  ret i32 %52
}