; Function Attrs: mustprogress nofree norecurse nounwind willreturn memory(read, inaccessiblemem: none) uwtable
define internal range(i32 0, 101) i32 @dhav_probe(ptr noundef readonly captures(none) %0) #0 {
  %2 = getelementptr inbounds nuw i8, ptr %0, i64 8
  %3 = load ptr, ptr %2, align 8, !tbaa !4
  %bcmp = tail call i32 @bcmp(ptr noundef nonnull dereferenceable(5) %3, ptr noundef nonnull dereferenceable(5) @.str.3, i64 5)
  %.not = icmp eq i32 %bcmp, 0
  br i1 %.not, label %9, label %4

4:                                                ; preds = %1
  %bcmp7 = tail call i32 @bcmp(ptr noundef nonnull dereferenceable(4) %3, ptr noundef nonnull dereferenceable(4) @.str.4, i64 4)
  %.not8 = icmp eq i32 %bcmp7, 0
  br i1 %.not8, label %5, label %9

5:                                                ; preds = %4
  %6 = getelementptr inbounds nuw i8, ptr %3, i64 4
  %7 = load i8, ptr %6, align 1, !tbaa !11
  switch i8 %7, label %8 [
    i8 -16, label %9
    i8 -15, label %9
    i8 -4, label %9
    i8 -3, label %9
  ]

8:                                                ; preds = %5
  br label %9

9:                                                ; preds = %5, %5, %5, %5, %4, %1, %8
  %.0 = phi i32 [ 0, %8 ], [ 100, %1 ], [ 0, %4 ], [ 100, %5 ], [ 100, %5 ], [ 100, %5 ], [ 100, %5 ]
  ret i32 %.0
}